c__builtin__
set
p0
((lp1
Vcoach
p2
aVhelp
p3
aVgold
p4
aVshow
p5
aVgerman
p6
aVmoney
p7
aVover
p8
aVsoon
p9
aValien
p10
aVbring
p11
aVscientist
p12
aVkill
p13
aVgang
p14
aVhuman
p15
aVerot
p16
aVearth
p17
aVfind
p18
aVinvolv
p19
aVwomen
p20
aVdecid
p21
aVdeath
p22
aVgroup
p23
aVsheriff
p24
aVhow
p25
aVfather
p26
aVyoung
p27
aVlittl
p28
aVcrime
p29
aVoffic
p30
aVprison
p31
aVsuspect
p32
aVtell
p33
aVsave
p34
aVmen
p35
aVthen
p36
aVthem
p37
aVwoman
p38
aVreturn
p39
aVsong
p40
aVkiller
p41
aVband
p42
aVgame
p43
aVwere
p44
aVknow
p45
aVthey
p46
aVfall
p47
aVworld
p48
aVnow
p49
aVhim
p50
aVlike
p51
aVtri
p52
aVmagic
p53
aVname
p54
aVbrother
p55
aVmysteri
p56
aVthese
p57
aVrace
p58
aVshe
p59
aVrock
p60
aVthrough
p61
aVmarri
p62
aVwhere
p63
aVride
p64
aVhusband
p65
aVset
p66
aVold
p67
aVsome
p68
aVplay
p69
aVdead
p70
aVsex
p71
aVhors
p72
aVfollow
p73
aVour
p74
aVgirl
p75
aVhistori
p76
aVsexual
p77
aVout
p78
aVwhat
p79
aVdetect
p80
aVlead
p81
aVspace
p82
aVgoe
p83
aVindian
p84
aVleav
p85
aVbetween
p86
aVwin
p87
aVwe
p88
aVinvestig
p89
aVpower
p90
aVteam
p91
aVeach
p92
aVonli
p93
aVevil
p94
aVsing
p95
aVbecom
p96
aVcome
p97
aVby
p98
aVboth
p99
aVfootbal
p100
aVdaughter
p101
aVmost
p102
aVseduc
p103
aVhowev
p104
aVdocumentari
p105
aVagainst
p106
aVturn
p107
aVamerican
p108
aVmani
p109
aVmurder
p110
aVfirst
p111
aVthere
p112
aVlove
p113
aVhad
p114
aVinto
p115
aVarriv
p116
aVson
p117
aVdown
p118
aVfamili
p119
aVnews
p120
aVowner
p121
aVuse
p122
aVher
p123
aVnight
p124
aVstori
p125
aVbeen
p126
aVfight
p127
aVstart
p128
aVsecret
p129
aVmusic
p130
aVinclud
p131
aVway
p132
aVarmi
p133
aVrancher
p134
aVcall
p135
aVwas
p136
aVwar
p137
aVhead
p138
aVhimself
p139
aVboy
p140
aVforc
p141
aVpeopl
p142
aVback
p143
aVmust
p144
aVtown
p145
aVlook
p146
aVhous
p147
aVthis
p148
aVoutlaw
p149
aVbattl
p150
aVup
p151
aVfinal
p152
aVplanet
p153
aVcan
p154
aVlearn
p155
aVmeet
p156
aVdanc
p157
aVfeatur
p158
aVexplor
p159
aVdo
p160
aVdure
p161
aVyear
p162
aVlife
p163
aVranch
p164
aVplayer
p165
aVbeliev
p166
aVanim
p167
aVwant
p168
aVhome
p169
aVcrimin
p170
aVnazi
p171
aVseem
p172
aVfilm
p173
aVsport
p174
aVsoldier
p175
aVpolic
p176
aVanoth
p177
aVget
p178
aV-
p179
aValso
p180
aVfutur
p181
aVwhich
p182
aVinterview
p183
aVadventur
p184
aVbegin
p185
aVafter
p186
aVdiscov
p187
aVbefor
p188
aVjourney
p189
aVplan
p190
aVbeauti
p191
aVcattl
p192
aVman
p193
aVsinger
p194
aVoff
p195
aVwife
p196
aVlater
p197
aVdoe
p198
aVperform
p199
aVso
p200
aVmother
p201
aVescap
p202
atp203
Rp204
.