(dp0
VSci-Fi
p1
(I32
I4413
I211
F1.34
F0.9543685121107266
(lp2
(Vplanet
p3
F14.6
tp4
a(Valien
p5
F12.47
tp6
a(Vscientist
p7
F10.84
tp8
a(Vearth
p9
F10.73
tp10
a(Vspace
p11
F9.17
tp12
a(Vhuman
p13
F4.69
tp14
a(Vfutur
p15
F4.67
tp16
a(Vevil
p17
F4.19
tp18
a(Vpower
p19
F2.94
tp20
a(Vmysteri
p21
F2.69
tp22
a(Vsave
p23
F2.15
tp24
a(Vsecret
p25
F2.12
tp26
a(Vdiscov
p27
F2.12
tp28
a(Vfight
p29
F2.05
tp30
a(Vgroup
p31
F2.05
tp32
a(Vworld
p33
F1.98
tp34
a(Vmust
p35
F1.95
tp36
a(Vuse
p37
F1.87
tp38
a(Vforc
p39
F1.83
tp40
a(Vcall
p41
F1.76
tp42
a(Vnow
p43
F1.57
tp44
a(Vname
p45
F1.55
tp46
a(Vpeopl
p47
F1.46
tp48
a(Vonli
p49
F1.44
tp50
a(Vcan
p51
F1.44
tp52
a(Vkill
p53
F1.4
tp54
a(Vbeen
p55
F1.4
tp56
a(Vbefor
p57
F1.4
tp58
a(Vinto
p59
F1.39
tp60
a(Vbegin
p61
F1.38
tp62
a(Vwhere
p63
F1.35
tp64
a(Vwhich
p65
F1.34
tp66
atp67
sVCrime
p68
(I28
I8243
I422
F1.31
F0.9512983266012695
(lp69
(Vcrimin
p70
F5.79
tp71
a(Vcrime
p72
F5.54
tp73
a(Vdetect
p74
F5.42
tp75
a(Vpolic
p76
F4.79
tp77
a(Vinvestig
p78
F3.76
tp79
a(Vmurder
p80
F3.7
tp81
a(Vgang
p82
F3.4
tp83
a(Vkill
p84
F2.55
tp85
a(Vmoney
p86
F2.22
tp87
a(Vplan
p88
F1.88
tp89
a(Vsoon
p90
F1.51
tp91
a(Vget
p92
F1.48
tp93
a(Vname
p94
F1.45
tp95
a(Vwife
p96
F1.45
tp97
a(Vhimself
p98
F1.43
tp99
a(Vhim
p100
F1.42
tp101
a(Vhelp
p102
F1.42
tp103
a(Vforc
p104
F1.42
tp105
a(Vbefor
p106
F1.39
tp107
a(Vout
p108
F1.36
tp109
a(Vturn
p110
F1.36
tp111
a(Vnow
p112
F1.36
tp113
a(Valso
p114
F1.36
tp115
a(Vafter
p116
F1.34
tp117
a(Vup
p118
F1.34
tp119
a(Vfind
p120
F1.32
tp121
a(Vuse
p122
F1.31
tp123
a(Vtri
p124
F1.31
tp125
atp126
sVRomance
p127
(I25
I12661
I660
F1.41
F0.9504541701073493
(lp128
(Vmarri
p129
F2.83
tp130
a(Vfall
p131
F2.72
tp132
a(Vlove
p133
F2.63
tp134
a(Vmeet
p135
F2.19
tp136
a(Vshe
p137
F1.84
tp138
a(Vbeauti
p139
F1.83
tp140
a(Vdaughter
p141
F1.8
tp142
a(Vgirl
p143
F1.73
tp144
a(Vher
p145
F1.72
tp146
a(Vdoe
p147
F1.69
tp148
a(Vwoman
p149
F1.66
tp150
a(Vboth
p151
F1.63
tp152
a(Vknow
p153
F1.6
tp154
a(Vwant
p155
F1.59
tp156
a(Vleav
p157
F1.58
tp158
a(Vreturn
p159
F1.55
tp160
a(Veach
p161
F1.53
tp162
a(Vfather
p163
F1.53
tp164
a(Vsoon
p165
F1.52
tp166
a(Vname
p167
F1.51
tp168
a(Vdecid
p169
F1.51
tp170
a(Vget
p171
F1.48
tp172
a(Vhim
p173
F1.45
tp174
a(Valso
p175
F1.43
tp176
a(Vyoung
p177
F1.41
tp178
atp179
sVAnimation
p180
(I4
I2830
I3972
F1.27
F0.4160541017347839
(lp181
(Vanim
p182
F7.24
tp183
a(Vlittl
p184
F2.05
tp185
a(Voff
p186
F1.58
tp187
a(Vuse
p188
F1.49
tp189
a(g59
F1.27
tp190
atp191
sVMusic
p192
(I14
I2989
I568
F1.26
F0.8403148720832162
(lp193
(Vmusic
p194
F9.9
tp195
a(Vsong
p196
F9.3
tp197
a(Vband
p198
F8.99
tp199
a(Vsing
p200
F8.12
tp201
a(Vrock
p202
F7.33
tp203
a(Vsinger
p204
F7.16
tp205
a(Vperform
p206
F5.73
tp207
a(Vdanc
p208
F4.78
tp209
a(Vfeatur
p210
F4.14
tp211
a(Vplay
p212
F2.51
tp213
a(Vinclud
p214
F2.28
tp215
a(Vshow
p216
F1.97
tp217
a(Vfilm
p218
F1.53
tp219
a(Valso
p220
F1.36
tp221
a(Vthis
p222
F1.26
tp223
atp224
sVComedy
p225
(I1
I8729
I22905
F1.27
F0.27593728267054435
(lp226
(Vget
p227
F1.38
tp228
a(Vso
p229
F1.27
tp230
atp231
sVWar
p232
(I17
I3034
I275
F1.26
F0.9168933212450892
(lp233
(Vnazi
p234
F12.9
tp235
a(Vgerman
p236
F12.0
tp237
a(Vsoldier
p238
F10.75
tp239
a(Vwar
p240
F8.78
tp241
a(Varmi
p242
F8.37
tp243
a(Vbattl
p244
F4.06
tp245
a(Vdure
p246
F3.67
tp247
a(Vamerican
p248
F3.46
tp249
a(Voffic
p250
F3.25
tp251
a(Vfight
p252
F2.57
tp253
a(Vagainst
p254
F2.16
tp255
a(Vmen
p256
F2.13
tp257
a(Vworld
p258
F2.13
tp259
a(Vforc
p260
F2.11
tp261
a(Vstori
p262
F1.42
tp263
a(Vbetween
p264
F1.38
tp265
a(Vreturn
p266
F1.37
tp267
a(Vfirst
p268
F1.26
tp269
atp270
sVHorror
p271
(I17
I5986
I955
F1.29
F0.8624117562310907
(lp272
(Vdead
p273
F3.16
tp274
a(Vmysteri
p275
F2.84
tp276
a(Vmurder
p277
F2.58
tp278
a(Vkill
p279
F2.29
tp280
a(Vnight
p281
F2.2
tp282
a(Vgroup
p283
F2.1
tp284
a(Vhous
p285
F1.98
tp286
a(Vdeath
p287
F1.98
tp288
a(Vbegin
p289
F1.85
tp290
a(Vsoon
p291
F1.85
tp292
a(Vdiscov
p293
F1.78
tp294
a(Vturn
p295
F1.55
tp296
a(Vmust
p297
F1.38
tp298
a(Vstart
p299
F1.36
tp300
a(Vinto
p301
F1.35
tp302
a(Vthem
p303
F1.34
tp304
a(Vbefor
p305
F1.34
tp306
a(Vfind
p307
F1.29
tp308
atp309
sVFilm-Noir
p310
(I25
I404
I11
F1.93
F0.9734939759036144
(lp311
(Vsuspect
p312
F7.47
tp313
a(Vmurder
p314
F6.23
tp315
a(Vdetect
p316
F5.9
tp317
a(Vkiller
p318
F5.77
tp319
a(Vpolic
p320
F5.46
tp321
a(Vcrime
p322
F5.26
tp323
a(Vinvestig
p324
F4.67
tp325
a(Vprison
p326
F4.37
tp327
a(Vkill
p328
F3.87
tp329
a(Vinvolv
p330
F3.79
tp331
a(Vmoney
p332
F2.96
tp333
a(Vbeliev
p334
F2.89
tp335
a(Vplan
p336
F2.78
tp337
a(Vwife
p338
F2.74
tp339
a(Vhusband
p340
F2.63
tp341
a(Vnight
p342
F2.62
tp343
a(Vsoon
p344
F2.09
tp345
a(Vmarri
p346
F2.07
tp347
a(Vhad
p348
F2.05
tp349
a(Vfall
p350
F2.04
tp351
a(Vescap
p352
F2.02
tp353
a(Vknow
p354
F1.96
tp355
a(Vgoe
p356
F1.94
tp357
a(Vlater
p358
F1.94
tp359
a(Vhim
p360
F1.93
tp361
atp362
sVWestern
p363
(I30
I4101
I212
F1.67
F0.9508462786923255
(lp364
(Vrancher
p365
F24.81
tp366
a(Vcattl
p367
F21.94
tp368
a(Voutlaw
p369
F21.35
tp370
a(Vranch
p371
F19.77
tp372
a(Vsheriff
p373
F16.03
tp374
a(Vgold
p375
F10.21
tp376
a(Vhors
p377
F8.93
tp378
a(Vgang
p379
F8.02
tp380
a(Vindian
p381
F7.64
tp382
a(Vride
p383
F6.55
tp384
a(Vtown
p385
F4.25
tp386
a(Vowner
p387
F3.92
tp388
a(Varriv
p389
F3.75
tp390
a(Vkill
p391
F3.2
tp392
a(Vmen
p393
F3.08
tp394
a(Vhead
p395
F2.81
tp396
a(Vmurder
p397
F2.67
tp398
a(Vplan
p399
F2.67
tp400
a(Vmoney
p401
F2.54
tp402
a(Vescap
p403
F2.45
tp404
a(Vlearn
p405
F2.43
tp406
a(Vbrother
p407
F2.26
tp408
a(Vdaughter
p409
F2.18
tp410
a(Vfight
p411
F2.03
tp412
a(Vbring
p413
F1.99
tp414
a(Vreturn
p415
F1.92
tp416
a(Voff
p417
F1.86
tp418
a(Vthen
p419
F1.79
tp420
a(Vbeen
p421
F1.69
tp422
a(Vhim
p423
F1.67
tp424
atp425
sVNews
p426
(I18
I772
I68
F1.24
F0.919047619047619
(lp427
(Vnews
p428
F8.96
tp429
a(Vinterview
p430
F5.07
tp431
a(Vdocumentari
p432
F3.87
tp433
a(Vour
p434
F3.68
tp435
a(Vexplor
p436
F3.2
tp437
a(Vpeopl
p438
F2.48
tp439
a(Vwe
p440
F2.44
tp441
a(Vwere
p442
F2.3
tp443
a(Vshow
p444
F2.29
tp445
a(Vfilm
p446
F2.09
tp447
a(Vhow
p448
F1.88
tp449
a(Vmost
p450
F1.66
tp451
a(Vthis
p452
F1.49
tp453
a(Vworld
p454
F1.45
tp455
a(Vlook
p456
F1.42
tp457
a(Vstori
p458
F1.41
tp459
a(Vfollow
p460
F1.37
tp461
a(Vthrough
p462
F1.35
tp463
a(Vover
p464
F1.24
tp465
atp466
sVThriller
p467
(I33
I10189
I510
F1.36
F0.9523319936442658
(lp468
(Vinvestig
p469
F3.38
tp470
a(Vmurder
p471
F3.31
tp472
a(Vpolic
p473
F2.83
tp474
a(Vdead
p475
F2.74
tp476
a(g21
F2.61
tp477
a(g84
F2.52
tp478
a(Vsecret
p479
F2.11
tp480
a(Vdeath
p481
F2.0
tp482
a(Vsoon
p483
F1.87
tp484
a(Vseem
p485
F1.81
tp486
a(Vbegin
p487
F1.78
tp488
a(Vdiscov
p489
F1.76
tp490
a(Vmust
p491
F1.66
tp492
a(Vhowev
p493
F1.57
tp494
a(g41
F1.57
tp495
a(g96
F1.55
tp496
a(Vknow
p497
F1.54
tp498
a(Vforc
p499
F1.53
tp500
a(Vbefor
p501
F1.52
tp502
a(g45
F1.51
tp503
a(g120
F1.49
tp504
a(Vturn
p505
F1.49
tp506
a(Vnow
p507
F1.47
tp508
a(Vbeen
p509
F1.46
tp510
a(Vstart
p511
F1.43
tp512
a(g102
F1.39
tp513
a(Vhimself
p514
F1.39
tp515
a(Vwhat
p516
F1.38
tp517
a(Vafter
p518
F1.38
tp519
a(Vbecom
p520
F1.38
tp521
a(g124
F1.37
tp522
a(g49
F1.36
tp523
a(Vwoman
p524
F1.36
tp525
atp526
sVAdult
p527
(I18
I533
I27
F1.42
F0.9517857142857142
(lp528
(Verot
p529
F33.96
tp530
a(Vsex
p531
F17.0
tp532
a(Vsexual
p533
F15.17
tp534
a(Vseduc
p535
F13.82
tp536
a(Vhusband
p537
F2.86
tp538
a(Vwomen
p539
F2.67
tp540
a(Vgirl
p541
F2.1
tp542
a(Vbeauti
p543
F2.01
tp544
a(Vthen
p545
F1.9
tp546
a(Vwoman
p547
F1.88
tp548
a(Vanoth
p549
F1.78
tp550
a(Vher
p551
F1.76
tp552
a(Vshe
p553
F1.74
tp554
a(Vfinal
p555
F1.72
tp556
a(Vsome
p557
F1.56
tp558
a(Veach
p559
F1.51
tp560
a(Vshow
p561
F1.47
tp562
a(V-
p563
F1.42
tp564
atp565
sVMystery
p566
(I30
I4733
I249
F1.33
F0.9500200722601365
(lp567
(Vdetect
p568
F6.08
tp569
a(g78
F5.38
tp570
a(g471
F4.67
tp571
a(g21
F4.66
tp572
a(Vpolic
p573
F3.14
tp574
a(Vdead
p575
F2.77
tp576
a(Vsecret
p577
F2.12
tp578
a(Vdeath
p579
F2.11
tp580
a(Vkill
p581
F2.09
tp582
a(Vseem
p583
F2.08
tp584
a(g27
F1.99
tp585
a(Vnight
p586
F1.8
tp587
a(Vbegin
p588
F1.71
tp589
a(g90
F1.64
tp590
a(Vlead
p591
F1.64
tp592
a(g41
F1.62
tp593
a(Vfind
p594
F1.6
tp595
a(Vbefor
p596
F1.58
tp597
a(Vbeen
p598
F1.57
tp599
a(Vwoman
p600
F1.53
tp601
a(Vhad
p602
F1.51
tp603
a(Vknow
p604
F1.5
tp605
a(Vwas
p606
F1.46
tp607
a(g94
F1.45
tp608
a(Vthere
p609
F1.43
tp610
a(Vman
p611
F1.38
tp612
a(Vhelp
p613
F1.37
tp614
a(Vtri
p615
F1.34
tp616
a(Vwife
p617
F1.34
tp618
a(Vwhat
p619
F1.33
tp620
atp621
sVShort
p622
(I0
I4733
I249
F1.15
F0.9500200722601365
(lp623
(Vfilm
p624
F1.15
tp625
atp626
sVLifestyle
p627
(I0
I4733
I249
F1.15
F0.9500200722601365
(lp628
tp629
sVDrama
p630
(I12
I34148
I10005
F1.28
F0.7734015808665323
(lp631
(Vmother
p632
F1.5
tp633
a(Vson
p634
F1.49
tp635
a(g163
F1.45
tp636
a(g96
F1.42
tp637
a(g133
F1.4
tp638
a(Vfamili
p639
F1.35
tp640
a(Vyoung
p641
F1.35
tp642
a(Vwoman
p643
F1.32
tp644
a(Vfall
p645
F1.31
tp646
a(g137
F1.31
tp647
a(g157
F1.3
tp648
a(Vlife
p649
F1.3
tp650
a(Vher
p651
F1.28
tp652
atp653
sVAction
p654
(I33
I10037
I509
F1.37
F0.9517352550730135
(lp655
(Vgang
p656
F3.36
tp657
a(g84
F2.71
tp658
a(g473
F2.7
tp659
a(Vfight
p660
F2.67
tp661
a(Vagainst
p662
F2.19
tp663
a(Vforc
p664
F2.04
tp665
a(Vescap
p666
F2.01
tp667
a(g45
F1.98
tp668
a(Vmurder
p669
F1.98
tp670
a(g491
F1.95
tp671
a(Vbrother
p672
F1.91
tp673
a(Vplan
p674
F1.9
tp675
a(g43
F1.8
tp676
a(g102
F1.62
tp677
a(Vson
p678
F1.61
tp679
a(Vdown
p680
F1.57
tp681
a(g497
F1.53
tp682
a(g501
F1.53
tp683
a(Vdaughter
p684
F1.51
tp685
a(g509
F1.5
tp686
a(Valso
p687
F1.5
tp688
a(Vset
p689
F1.48
tp690
a(Vuse
p691
F1.44
tp692
a(g514
F1.43
tp693
a(Vthem
p694
F1.42
tp695
a(g518
F1.41
tp696
a(Vout
p697
F1.41
tp698
a(Vthen
p699
F1.4
tp700
a(g49
F1.39
tp701
a(Vreturn
p702
F1.38
tp703
a(g120
F1.38
tp704
a(Vget
p705
F1.37
tp706
a(Vhim
p707
F1.37
tp708
atp709
sVDocumentary
p710
(I21
I14923
I731
F1.33
F0.953302670244027
(lp711
(Vdocumentari
p712
F5.94
tp713
a(Vinterview
p714
F4.75
tp715
a(Vexplor
p716
F3.22
tp717
a(Vwe
p718
F2.59
tp719
a(Vfilm
p720
F2.56
tp721
a(Vjourney
p722
F2.38
tp723
a(Vthese
p724
F2.18
tp725
a(Vmost
p726
F2.06
tp727
a(Vpeopl
p728
F1.99
tp729
a(Vmani
p730
F1.93
tp731
a(Vhow
p732
F1.84
tp733
a(Vworld
p734
F1.73
tp735
a(Vthrough
p736
F1.72
tp737
a(Vfollow
p738
F1.7
tp739
a(Vthis
p740
F1.6
tp741
a(g458
F1.58
tp742
a(Vshow
p743
F1.55
tp744
a(Vyear
p745
F1.5
tp746
a(Vwas
p747
F1.44
tp748
a(Vlook
p749
F1.39
tp750
a(Vfirst
p751
F1.33
tp752
atp753
sVMusical
p754
(I30
I2904
I140
F1.33
F0.9540078843626807
(lp755
(Vsing
p756
F8.66
tp757
a(Vdanc
p758
F5.85
tp759
a(Vmusic
p760
F5.48
tp761
a(Vmarri
p762
F2.75
tp763
a(Vfall
p764
F2.22
tp765
a(Vlove
p766
F1.98
tp767
a(Vname
p768
F1.86
tp769
a(Vshow
p770
F1.82
tp771
a(Vmeet
p772
F1.79
tp773
a(Vdaughter
p774
F1.79
tp775
a(Vdoe
p776
F1.73
tp777
a(Vwant
p778
F1.72
tp779
a(Vgirl
p780
F1.7
tp781
a(Vplay
p782
F1.62
tp783
a(Vdecid
p784
F1.6
tp785
a(Vboth
p786
F1.56
tp787
a(Vleav
p788
F1.54
tp789
a(Vget
p790
F1.54
tp791
a(Vson
p792
F1.54
tp793
a(Vshe
p794
F1.51
tp795
a(Vsoon
p796
F1.51
tp797
a(Vthen
p798
F1.49
tp799
a(Vknow
p800
F1.48
tp801
a(Vcome
p802
F1.46
tp803
a(Valso
p804
F1.46
tp805
a(Vher
p806
F1.45
tp807
a(Vreturn
p808
F1.42
tp809
a(Vdo
p810
F1.38
tp811
a(Vlike
p812
F1.35
tp813
a(Vhim
p814
F1.33
tp815
atp816
sVHistory
p817
(I20
I2834
I283
F1.19
F0.9092075713827398
(lp818
(Vhistori
p819
F6.31
tp820
a(Vwar
p821
F3.61
tp822
a(Vdocumentari
p823
F2.73
tp824
a(Vamerican
p825
F2.55
tp826
a(Vwere
p827
F2.47
tp828
a(Vdure
p829
F2.21
tp830
a(Vstori
p831
F1.98
tp832
a(Vagainst
p833
F1.96
tp834
a(Vfilm
p835
F1.76
tp836
a(Vpeopl
p837
F1.68
tp838
a(Vwas
p839
F1.66
tp840
a(Vthrough
p841
F1.5
tp842
a(Vworld
p843
F1.48
tp844
a(Vmost
p845
F1.46
tp846
a(Vtell
p847
F1.45
tp848
a(Vhow
p849
F1.45
tp850
a(Vyear
p851
F1.39
tp852
a(Vthis
p853
F1.38
tp854
a(Vfirst
p855
F1.36
tp856
a(Vbetween
p857
F1.33
tp858
a(Vwhich
p859
F1.19
tp860
atp861
sVFamily
p862
(I11
I5835
I2048
F1.29
F0.7402004313078777
(lp863
(Vboy
p864
F2.0
tp865
a(g184
F1.96
tp866
a(Vname
p867
F1.53
tp868
a(Vfamili
p869
F1.45
tp870
a(Vlike
p871
F1.42
tp872
a(Vhome
p873
F1.42
tp874
a(Vshow
p875
F1.38
tp876
a(Vthen
p877
F1.38
tp878
a(Vget
p879
F1.37
tp880
a(Vhelp
p881
F1.36
tp882
a(Vso
p883
F1.34
tp884
a(Vuse
p885
F1.29
tp886
atp887
sVAdventure
p888
(I27
I6521
I533
F1.29
F0.9244400340232493
(lp889
(Vadventur
p890
F4.9
tp891
a(Vsave
p892
F2.33
tp893
a(Vescap
p894
F2.16
tp895
a(g660
F2.08
tp896
a(Vmust
p897
F1.8
tp898
a(Vagainst
p899
F1.78
tp900
a(Vname
p901
F1.71
tp902
a(Vforc
p903
F1.64
tp904
a(Vkill
p905
F1.63
tp906
a(Vhelp
p907
F1.63
tp908
a(Vset
p909
F1.6
tp910
a(Vdiscov
p911
F1.58
tp912
a(Voff
p913
F1.51
tp914
a(Vthem
p915
F1.44
tp916
a(g43
F1.42
tp917
a(g33
F1.42
tp918
a(g702
F1.4
tp919
a(Vuse
p920
F1.4
tp921
a(Vbefor
p922
F1.39
tp923
a(Vwhere
p924
F1.37
tp925
a(Vfind
p926
F1.36
tp927
a(Vway
p928
F1.36
tp929
a(g687
F1.36
tp930
a(Vthey
p931
F1.34
tp932
a(Vback
p933
F1.32
tp934
a(g55
F1.31
tp935
a(Vfather
p936
F1.3
tp937
a(Vby
p938
F1.29
tp939
atp940
sVFantasy
p941
(I18
I4376
I635
F1.29
F0.8732787866693275
(lp942
(Vmagic
p943
F8.15
tp944
a(Vevil
p945
F5.12
tp946
a(Vpower
p947
F2.67
tp948
a(g21
F2.51
tp949
a(Vmust
p950
F1.8
tp951
a(g33
F1.71
tp952
a(g167
F1.64
tp953
a(Vdiscov
p954
F1.53
tp955
a(Vhelp
p956
F1.44
tp957
a(Vcan
p958
F1.44
tp959
a(g59
F1.4
tp960
a(Vgirl
p961
F1.39
tp962
a(Vwhere
p963
F1.39
tp964
a(Vwhich
p965
F1.34
tp966
a(Vback
p967
F1.34
tp968
a(g43
F1.34
tp969
a(g514
F1.32
tp970
a(Vfind
p971
F1.31
tp972
a(Vold
p973
F1.29
tp974
atp975
sVSport
p976
(I16
I1535
I265
F1.26
F0.8527777777777777
(lp977
(Vsport
p978
F21.25
tp979
a(Vcoach
p980
F20.92
tp981
a(Vfootbal
p982
F19.72
tp983
a(Vplayer
p984
F13.58
tp985
a(Vteam
p986
F9.18
tp987
a(Vgame
p988
F7.0
tp989
a(Vrace
p990
F5.64
tp991
a(Vwin
p992
F5.19
tp993
a(Vplay
p994
F2.63
tp995
a(Vfight
p996
F2.11
tp997
a(Vagainst
p998
F1.82
tp999
a(Vworld
p1000
F1.73
tp1001
a(Vmost
p1002
F1.62
tp1003
a(Vshow
p1004
F1.6
tp1005
a(Vfollow
p1006
F1.58
tp1007
a(Vfirst
p1008
F1.45
tp1009
a(Vsome
p1010
F1.26
tp1011
atp1012
s.