(lp0
VSci-Fi
p1
aVCrime
p2
aVRomance
p3
aVAnimation
p4
aVMusic
p5
aVAdult
p6
aVComedy
p7
aVWar
p8
aVHorror
p9
aVFilm-Noir
p10
aVAdventure
p11
aVNews
p12
aVThriller
p13
aVWestern
p14
aVMystery
p15
aVShort
p16
aVLifestyle
p17
aVDrama
p18
aVAction
p19
aVDocumentary
p20
aVMusical
p21
aVHistory
p22
aVFamily
p23
aVFantasy
p24
aVSport
p25
a.